; Function Attrs: nounwind uwtable
define i32 @PEM_write_PKCS8PrivateKey_nid(ptr noundef %0, ptr noundef %1, i32 noundef %2, ptr noundef %3, i32 noundef %4, ptr noundef %5, ptr noundef %6) local_unnamed_addr #0 {
  %8 = tail call ptr @BIO_new_fp(ptr noundef %0, i32 noundef 0) #4
  %9 = icmp eq ptr %8, null
  br i1 %9, label %10, label %11

10:                                               ; preds = %7
  tail call void @ERR_new() #4
  tail call void @ERR_set_debug(ptr noundef nonnull @.str, i32 noundef 244, ptr noundef nonnull @__func__.do_pk8pkey_fp) #4
  tail call void (i32, i32, ptr, ...) @ERR_set_error(i32 noundef 9, i32 noundef 524295, ptr noundef null) #4
  br label %do_pk8pkey_fp.exit

11:                                               ; preds = %7
  %12 = tail call fastcc i32 @do_pk8pkey(ptr noundef nonnull %8, ptr noundef %1, i32 noundef 0, i32 noundef %2, ptr noundef null, ptr noundef %3, i32 noundef %4, ptr noundef %5, ptr noundef %6)
  %13 = tail call i32 @BIO_free(ptr noundef nonnull %8) #4
  br label %do_pk8pkey_fp.exit

do_pk8pkey_fp.exit:                               ; preds = %10, %11
  %.0.i = phi i32 [ 0, %10 ], [ %12, %11 ]
  ret i32 %.0.i
}